target datalayout = "e-m:e-p270:32:32-p271:32:32-p272:64:64-i64:64-i128:128-f80:128-n8:16:32:64-S128"
target triple = "x86_64-pc-linux-gnu"

%struct.UAmbiguousConverter = type { ptr, i16 }
%struct.UConverter = type { ptr, ptr, ptr, ptr, ptr, ptr, ptr, i32, i8, i8, i8, i8, i8, [7 x i8], i32, i32, i32, i32, i8, i8, i8, i8, i8, i8, i8, i8, [8 x i8], [32 x i8], [2 x i16], [2 x i16], [32 x i16], i32, [19 x i16], [31 x i8], i8, i8, i8, i32 }
%struct.UConverterSharedData = type { i32, i32, ptr, ptr, i8, i8, ptr, i32, %struct.UConverterMBCSTable }
%struct.UConverterMBCSTable = type { i8, i8, i8, i32, ptr, ptr, ptr, ptr, ptr, ptr, [64 x i16], ptr, ptr, i32, i8, i8, i8, i16, i32, ptr, ptr, ptr, ptr }
%struct.UConverterImpl = type { i32, ptr, ptr, ptr, ptr, ptr, ptr, ptr, ptr, ptr, ptr, ptr, ptr, ptr, ptr, ptr, ptr, ptr }
%struct.UConverterStaticData = type { i32, [60 x i8], i32, i8, i8, i8, i8, [4 x i8], i8, i8, i8, i8, i8, [19 x i8] }

; Function Attrs: inlinehint mustprogress nounwind uwtable
define internal noundef signext i8 @_ZL9U_FAILURE10UErrorCode(i32 noundef %0) #2 {
  %2 = alloca i32, align 4
  store i32 %0, ptr %2, align 4, !tbaa !9
  %3 = load i32, ptr %2, align 4, !tbaa !9
  %4 = icmp sgt i32 %3, 0
  %5 = zext i1 %4 to i8
  ret i8 %5
}

; Function Attrs: mustprogress uwtable
define ptr @ucnv_getName_77(ptr noundef %0, ptr noundef %1) #0 {
  %3 = alloca ptr, align 8
  %4 = alloca ptr, align 8
  %5 = alloca ptr, align 8
  %6 = alloca ptr, align 8
  %7 = alloca i32, align 4
  store ptr %0, ptr %4, align 8, !tbaa !11
  store ptr %1, ptr %5, align 8, !tbaa !8
  %8 = load ptr, ptr %5, align 8, !tbaa !8
  %9 = load i32, ptr %8, align 4, !tbaa !9
  %10 = call noundef signext i8 @_ZL9U_FAILURE10UErrorCode(i32 noundef %9)
  %11 = icmp ne i8 %10, 0
  br i1 %11, label %12, label %13

12:                                               ; preds = %2
  store ptr null, ptr %3, align 8
  br label %48

13:                                               ; preds = %2
  %14 = load ptr, ptr %4, align 8, !tbaa !11
  %15 = getelementptr inbounds nuw %struct.UConverter, ptr %14, i32 0, i32 6
  %16 = load ptr, ptr %15, align 8, !tbaa !22
  %17 = getelementptr inbounds nuw %struct.UConverterSharedData, ptr %16, i32 0, i32 6
  %18 = load ptr, ptr %17, align 8, !tbaa !26
  %19 = getelementptr inbounds nuw %struct.UConverterImpl, ptr %18, i32 0, i32 12
  %20 = load ptr, ptr %19, align 8, !tbaa !81
  %21 = icmp ne ptr %20, null
  br i1 %21, label %22, label %40

22:                                               ; preds = %13
  call void @llvm.lifetime.start.p0(i64 8, ptr %6) #11
  %23 = load ptr, ptr %4, align 8, !tbaa !11
  %24 = getelementptr inbounds nuw %struct.UConverter, ptr %23, i32 0, i32 6
  %25 = load ptr, ptr %24, align 8, !tbaa !22
  %26 = getelementptr inbounds nuw %struct.UConverterSharedData, ptr %25, i32 0, i32 6
  %27 = load ptr, ptr %26, align 8, !tbaa !26
  %28 = getelementptr inbounds nuw %struct.UConverterImpl, ptr %27, i32 0, i32 12
  %29 = load ptr, ptr %28, align 8, !tbaa !81
  %30 = load ptr, ptr %4, align 8, !tbaa !11
  %31 = call noundef ptr %29(ptr noundef %30)
  store ptr %31, ptr %6, align 8, !tbaa !3
  %32 = load ptr, ptr %6, align 8, !tbaa !3
  %33 = icmp ne ptr %32, null
  br i1 %33, label %34, label %36

34:                                               ; preds = %22
  %35 = load ptr, ptr %6, align 8, !tbaa !3
  store ptr %35, ptr %3, align 8
  store i32 1, ptr %7, align 4
  br label %37

36:                                               ; preds = %22
  store i32 0, ptr %7, align 4
  br label %37

37:                                               ; preds = %36, %34
  call void @llvm.lifetime.end.p0(i64 8, ptr %6) #11
  %38 = load i32, ptr %7, align 4
  switch i32 %38, label %50 [
    i32 0, label %39
    i32 1, label %48
  ]

39:                                               ; preds = %37
  br label %40

40:                                               ; preds = %39, %13
  %41 = load ptr, ptr %4, align 8, !tbaa !11
  %42 = getelementptr inbounds nuw %struct.UConverter, ptr %41, i32 0, i32 6
  %43 = load ptr, ptr %42, align 8, !tbaa !22
  %44 = getelementptr inbounds nuw %struct.UConverterSharedData, ptr %43, i32 0, i32 3
  %45 = load ptr, ptr %44, align 8, !tbaa !53
  %46 = getelementptr inbounds nuw %struct.UConverterStaticData, ptr %45, i32 0, i32 1
  %47 = getelementptr inbounds [60 x i8], ptr %46, i64 0, i64 0
  store ptr %47, ptr %3, align 8
  br label %48

48:                                               ; preds = %40, %37, %12
  %49 = load ptr, ptr %3, align 8
  ret ptr %49

50:                                               ; preds = %37
  unreachable
}

; Function Attrs: mustprogress uwtable
define internal noundef ptr @_ZL17ucnv_getAmbiguousPK10UConverter(ptr noundef %0) #0 {
  %2 = alloca ptr, align 8
  %3 = alloca ptr, align 8
  %4 = alloca i32, align 4
  %5 = alloca ptr, align 8
  %6 = alloca i32, align 4
  %7 = alloca i32, align 4
  store ptr %0, ptr %3, align 8, !tbaa !11
  call void @llvm.lifetime.start.p0(i64 4, ptr %4) #11
  call void @llvm.lifetime.start.p0(i64 8, ptr %5) #11
  call void @llvm.lifetime.start.p0(i64 4, ptr %6) #11
  %8 = load ptr, ptr %3, align 8, !tbaa !11
  %9 = icmp eq ptr %8, null
  br i1 %9, label %10, label %11

10:                                               ; preds = %1
  store ptr null, ptr %2, align 8
  store i32 1, ptr %7, align 4
  br label %40

11:                                               ; preds = %1
  store i32 0, ptr %4, align 4, !tbaa !9
  %12 = load ptr, ptr %3, align 8, !tbaa !11
  %13 = call ptr @ucnv_getName_77(ptr noundef %12, ptr noundef %4)
  store ptr %13, ptr %5, align 8, !tbaa !3
  %14 = load i32, ptr %4, align 4, !tbaa !9
  %15 = call noundef signext i8 @_ZL9U_FAILURE10UErrorCode(i32 noundef %14)
  %16 = icmp ne i8 %15, 0
  br i1 %16, label %17, label %18

17:                                               ; preds = %11
  store ptr null, ptr %2, align 8
  store i32 1, ptr %7, align 4
  br label %40

18:                                               ; preds = %11
  store i32 0, ptr %6, align 4, !tbaa !15
  br label %19

19:                                               ; preds = %36, %18
  %20 = load i32, ptr %6, align 4, !tbaa !15
  %21 = icmp slt i32 %20, 11
  br i1 %21, label %22, label %39

22:                                               ; preds = %19
  %23 = load ptr, ptr %5, align 8, !tbaa !3
  %24 = load i32, ptr %6, align 4, !tbaa !15
  %25 = sext i32 %24 to i64
  %26 = getelementptr inbounds [11 x %struct.UAmbiguousConverter], ptr @_ZL19ambiguousConverters, i64 0, i64 %25
  %27 = getelementptr inbounds nuw %struct.UAmbiguousConverter, ptr %26, i32 0, i32 0
  %28 = load ptr, ptr %27, align 16, !tbaa !132
  %29 = call i32 @strcmp(ptr noundef %23, ptr noundef %28) #13
  %30 = icmp eq i32 0, %29
  br i1 %30, label %31, label %35

31:                                               ; preds = %22
  %32 = load i32, ptr %6, align 4, !tbaa !15
  %33 = sext i32 %32 to i64
  %34 = getelementptr inbounds %struct.UAmbiguousConverter, ptr @_ZL19ambiguousConverters, i64 %33
  store ptr %34, ptr %2, align 8
  store i32 1, ptr %7, align 4
  br label %40

35:                                               ; preds = %22
  br label %36

36:                                               ; preds = %35
  %37 = load i32, ptr %6, align 4, !tbaa !15
  %38 = add nsw i32 %37, 1
  store i32 %38, ptr %6, align 4, !tbaa !15
  br label %19, !llvm.loop !133

39:                                               ; preds = %19
  store ptr null, ptr %2, align 8
  store i32 1, ptr %7, align 4
  br label %40

40:                                               ; preds = %39, %31, %17, %10
  call void @llvm.lifetime.end.p0(i64 4, ptr %6) #11
  call void @llvm.lifetime.end.p0(i64 8, ptr %5) #11
  call void @llvm.lifetime.end.p0(i64 4, ptr %4) #11
  %41 = load ptr, ptr %2, align 8
  ret ptr %41
}

; Function Attrs: mustprogress uwtable
define signext i8 @ucnv_isAmbiguous_77(ptr noundef %0) #0 {
  %2 = alloca ptr, align 8
  store ptr %0, ptr %2, align 8, !tbaa !11
  %3 = load ptr, ptr %2, align 8, !tbaa !11
  %4 = call noundef ptr @_ZL17ucnv_getAmbiguousPK10UConverter(ptr noundef %3)
  %5 = icmp ne ptr %4, null
  %6 = zext i1 %5 to i8
  ret i8 %6
}