; Function Attrs: mustprogress uwtable
define signext range(i8 0, 2) i8 @ucnv_isAmbiguous_77(ptr noundef %0) local_unnamed_addr #0 {
  %2 = icmp eq ptr %0, null
  br i1 %2, label %_ZL17ucnv_getAmbiguousPK10UConverter.exit, label %3

3:                                                ; preds = %1
  %4 = getelementptr inbounds nuw i8, ptr %0, i64 48
  %5 = load ptr, ptr %4, align 8, !tbaa !8
  %6 = getelementptr inbounds nuw i8, ptr %5, i64 32
  %7 = load ptr, ptr %6, align 8, !tbaa !15
  %8 = getelementptr inbounds nuw i8, ptr %7, i64 96
  %9 = load ptr, ptr %8, align 8, !tbaa !71
  %.not10.i.i = icmp eq ptr %9, null
  br i1 %.not10.i.i, label %12, label %10

10:                                               ; preds = %3
  %11 = tail call noundef ptr %9(ptr noundef nonnull %0)
  %.not11.not.i.i = icmp eq ptr %11, null
  br i1 %.not11.not.i.i, label %._crit_edge.i.i, label %ucnv_getName_77.exit.i

._crit_edge.i.i:                                  ; preds = %10
  %.pre.i.i = load ptr, ptr %4, align 8, !tbaa !8
  br label %12

12:                                               ; preds = %._crit_edge.i.i, %3
  %13 = phi ptr [ %.pre.i.i, %._crit_edge.i.i ], [ %5, %3 ]
  %14 = getelementptr inbounds nuw i8, ptr %13, i64 16
  %15 = load ptr, ptr %14, align 8, !tbaa !44
  %16 = getelementptr inbounds nuw i8, ptr %15, i64 4
  br label %ucnv_getName_77.exit.i

ucnv_getName_77.exit.i:                           ; preds = %12, %10
  %.08.i.i = phi ptr [ %11, %10 ], [ %16, %12 ]
  br label %18

17:                                               ; preds = %18
  %indvars.iv.next.i = add nuw nsw i64 %indvars.iv.i, 1
  %exitcond.not.i = icmp eq i64 %indvars.iv.next.i, 11
  br i1 %exitcond.not.i, label %_ZL17ucnv_getAmbiguousPK10UConverter.exit, label %18, !llvm.loop !111

18:                                               ; preds = %17, %ucnv_getName_77.exit.i
  %indvars.iv.i = phi i64 [ 0, %ucnv_getName_77.exit.i ], [ %indvars.iv.next.i, %17 ]
  %19 = getelementptr inbounds nuw [11 x %struct.UAmbiguousConverter], ptr @_ZL19ambiguousConverters, i64 0, i64 %indvars.iv.i
  %20 = load ptr, ptr %19, align 16, !tbaa !112
  %21 = tail call i32 @strcmp(ptr noundef nonnull dereferenceable(1) %.08.i.i, ptr noundef nonnull dereferenceable(1) %20) #18
  %22 = icmp eq i32 %21, 0
  br i1 %22, label %_ZL17ucnv_getAmbiguousPK10UConverter.exit, label %17

_ZL17ucnv_getAmbiguousPK10UConverter.exit:        ; preds = %17, %18, %1
  %.07.i = phi i8 [ 0, %1 ], [ 1, %18 ], [ 0, %17 ]
  ret i8 %.07.i
}